target datalayout = "e-m:e-p270:32:32-p271:32:32-p272:64:64-i64:64-i128:128-f80:128-n8:16:32:64-S128"
target triple = "x86_64-pc-linux-gnu"

%struct.lean_object = type { i32, i32 }
%struct.lean_ctor_object = type { %struct.lean_object, [0 x ptr] }

@l_IO_FS_Stream_readRequestAs___at_Lean_Server_FileWorker_initAndRunWorker___spec__2___closed__13 = internal global ptr null, align 8

; Function Attrs: inlinehint nounwind uwtable
define internal ptr @lean_to_ctor(ptr noundef %0) #0 {
  %2 = alloca ptr, align 8
  store ptr %0, ptr %2, align 8, !tbaa !4
  %3 = load ptr, ptr %2, align 8, !tbaa !4
  ret ptr %3
}

; Function Attrs: inlinehint nounwind uwtable
define internal ptr @lean_alloc_small_object(i32 noundef %0) #0 {
  %2 = alloca i32, align 4
  %3 = alloca ptr, align 8
  %4 = alloca ptr, align 8
  store i32 %0, ptr %2, align 4, !tbaa !12
  call void @lean_inc_heartbeat()
  %5 = load i32, ptr %2, align 4, !tbaa !12
  %6 = zext i32 %5 to i64
  %7 = call i64 @lean_align(i64 noundef %6, i64 noundef 8)
  %8 = trunc i64 %7 to i32
  store i32 %8, ptr %2, align 4, !tbaa !12
  call void @llvm.lifetime.start.p0(i64 8, ptr %3) #8
  %9 = load i32, ptr %2, align 4, !tbaa !12
  %10 = zext i32 %9 to i64
  %11 = call noalias ptr @mi_malloc_small(i64 noundef %10)
  store ptr %11, ptr %3, align 8, !tbaa !4
  %12 = load ptr, ptr %3, align 8, !tbaa !4
  %13 = icmp eq ptr %12, null
  br i1 %13, label %14, label %15

14:                                               ; preds = %1
  call void @lean_internal_panic_out_of_memory() #7
  unreachable

15:                                               ; preds = %1
  call void @llvm.lifetime.start.p0(i64 8, ptr %4) #8
  %16 = load ptr, ptr %3, align 8, !tbaa !4
  store ptr %16, ptr %4, align 8, !tbaa !4
  %17 = load i32, ptr %2, align 4, !tbaa !12
  %18 = load ptr, ptr %4, align 8, !tbaa !4
  %19 = getelementptr inbounds nuw %struct.lean_object, ptr %18, i32 0, i32 1
  %20 = load i32, ptr %19, align 4
  %21 = and i32 %17, 65535
  %22 = and i32 %20, -65536
  %23 = or i32 %22, %21
  store i32 %23, ptr %19, align 4
  %24 = load ptr, ptr %4, align 8, !tbaa !4
  call void @llvm.lifetime.end.p0(i64 8, ptr %4) #8
  call void @llvm.lifetime.end.p0(i64 8, ptr %3) #8
  ret ptr %24
}

; Function Attrs: inlinehint nounwind uwtable
define internal i64 @lean_align(i64 noundef %0, i64 noundef %1) #0 {
  %3 = alloca i64, align 8
  %4 = alloca i64, align 8
  store i64 %0, ptr %3, align 8, !tbaa !8
  store i64 %1, ptr %4, align 8, !tbaa !8
  %5 = load i64, ptr %3, align 8, !tbaa !8
  %6 = load i64, ptr %4, align 8, !tbaa !8
  %7 = udiv i64 %5, %6
  %8 = load i64, ptr %4, align 8, !tbaa !8
  %9 = mul i64 %7, %8
  %10 = load i64, ptr %4, align 8, !tbaa !8
  %11 = load i64, ptr %3, align 8, !tbaa !8
  %12 = load i64, ptr %4, align 8, !tbaa !8
  %13 = urem i64 %11, %12
  %14 = icmp ne i64 %13, 0
  %15 = zext i1 %14 to i32
  %16 = sext i32 %15 to i64
  %17 = mul i64 %10, %16
  %18 = add i64 %9, %17
  ret i64 %18
}

; Function Attrs: inlinehint nounwind uwtable
define internal ptr @lean_ctor_obj_cptr(ptr noundef %0) #0 {
  %2 = alloca ptr, align 8
  store ptr %0, ptr %2, align 8, !tbaa !4
  %3 = load ptr, ptr %2, align 8, !tbaa !4
  %4 = call ptr @lean_to_ctor(ptr noundef %3)
  %5 = getelementptr inbounds nuw %struct.lean_ctor_object, ptr %4, i32 0, i32 1
  %6 = getelementptr inbounds [0 x ptr], ptr %5, i64 0, i64 0
  ret ptr %6
}

; Function Attrs: inlinehint nounwind uwtable
define internal void @lean_set_st_header(ptr noundef %0, i32 noundef %1, i32 noundef %2) #0 {
  %4 = alloca ptr, align 8
  %5 = alloca i32, align 4
  %6 = alloca i32, align 4
  store ptr %0, ptr %4, align 8, !tbaa !4
  store i32 %1, ptr %5, align 4, !tbaa !12
  store i32 %2, ptr %6, align 4, !tbaa !12
  %7 = load ptr, ptr %4, align 8, !tbaa !4
  %8 = getelementptr inbounds nuw %struct.lean_object, ptr %7, i32 0, i32 0
  store i32 1, ptr %8, align 4, !tbaa !15
  %9 = load i32, ptr %5, align 4, !tbaa !12
  %10 = load ptr, ptr %4, align 8, !tbaa !4
  %11 = getelementptr inbounds nuw %struct.lean_object, ptr %10, i32 0, i32 1
  %12 = load i32, ptr %11, align 4
  %13 = and i32 %9, 255
  %14 = shl i32 %13, 24
  %15 = and i32 %12, 16777215
  %16 = or i32 %15, %14
  store i32 %16, ptr %11, align 4
  %17 = load i32, ptr %6, align 4, !tbaa !12
  %18 = load ptr, ptr %4, align 8, !tbaa !4
  %19 = getelementptr inbounds nuw %struct.lean_object, ptr %18, i32 0, i32 1
  %20 = load i32, ptr %19, align 4
  %21 = and i32 %17, 255
  %22 = shl i32 %21, 16
  %23 = and i32 %20, -16711681
  %24 = or i32 %23, %22
  store i32 %24, ptr %19, align 4
  ret void
}

; Function Attrs: inlinehint nounwind uwtable
define internal ptr @lean_alloc_ctor_memory(i32 noundef %0) #0 {
  %2 = alloca i32, align 4
  %3 = alloca i32, align 4
  %4 = alloca ptr, align 8
  %5 = alloca ptr, align 8
  store i32 %0, ptr %2, align 4, !tbaa !12
  call void @llvm.lifetime.start.p0(i64 4, ptr %3) #8
  %6 = load i32, ptr %2, align 4, !tbaa !12
  %7 = zext i32 %6 to i64
  %8 = call i64 @lean_align(i64 noundef %7, i64 noundef 8)
  %9 = trunc i64 %8 to i32
  store i32 %9, ptr %3, align 4, !tbaa !12
  call void @llvm.lifetime.start.p0(i64 8, ptr %4) #8
  %10 = load i32, ptr %2, align 4, !tbaa !12
  %11 = call ptr @lean_alloc_small_object(i32 noundef %10)
  store ptr %11, ptr %4, align 8, !tbaa !4
  %12 = load i32, ptr %3, align 4, !tbaa !12
  %13 = load i32, ptr %2, align 4, !tbaa !12
  %14 = icmp ugt i32 %12, %13
  br i1 %14, label %15, label %22

15:                                               ; preds = %1
  call void @llvm.lifetime.start.p0(i64 8, ptr %5) #8
  %16 = load ptr, ptr %4, align 8, !tbaa !4
  %17 = load i32, ptr %3, align 4, !tbaa !12
  %18 = zext i32 %17 to i64
  %19 = getelementptr inbounds nuw i8, ptr %16, i64 %18
  store ptr %19, ptr %5, align 8, !tbaa !23
  %20 = load ptr, ptr %5, align 8, !tbaa !23
  %21 = getelementptr inbounds i64, ptr %20, i64 -1
  store i64 0, ptr %21, align 8, !tbaa !8
  call void @llvm.lifetime.end.p0(i64 8, ptr %5) #8
  br label %22

22:                                               ; preds = %15, %1
  %23 = load ptr, ptr %4, align 8, !tbaa !4
  call void @llvm.lifetime.end.p0(i64 8, ptr %4) #8
  call void @llvm.lifetime.end.p0(i64 4, ptr %3) #8
  ret ptr %23
}

; Function Attrs: inlinehint nounwind uwtable
define internal void @lean_ctor_set(ptr noundef %0, i32 noundef %1, ptr noundef %2) #0 {
  %4 = alloca ptr, align 8
  %5 = alloca i32, align 4
  %6 = alloca ptr, align 8
  store ptr %0, ptr %4, align 8, !tbaa !4
  store i32 %1, ptr %5, align 4, !tbaa !12
  store ptr %2, ptr %6, align 8, !tbaa !4
  %7 = load ptr, ptr %6, align 8, !tbaa !4
  %8 = load ptr, ptr %4, align 8, !tbaa !4
  %9 = call ptr @lean_ctor_obj_cptr(ptr noundef %8)
  %10 = load i32, ptr %5, align 4, !tbaa !12
  %11 = zext i32 %10 to i64
  %12 = getelementptr inbounds nuw ptr, ptr %9, i64 %11
  store ptr %7, ptr %12, align 8, !tbaa !4
  ret void
}

; Function Attrs: inlinehint nounwind uwtable
define internal ptr @lean_alloc_ctor(i32 noundef %0, i32 noundef %1, i32 noundef %2) #0 {
  %4 = alloca i32, align 4
  %5 = alloca i32, align 4
  %6 = alloca i32, align 4
  %7 = alloca ptr, align 8
  store i32 %0, ptr %4, align 4, !tbaa !12
  store i32 %1, ptr %5, align 4, !tbaa !12
  store i32 %2, ptr %6, align 4, !tbaa !12
  call void @llvm.lifetime.start.p0(i64 8, ptr %7) #8
  %8 = load i32, ptr %5, align 4, !tbaa !12
  %9 = zext i32 %8 to i64
  %10 = mul i64 8, %9
  %11 = add i64 8, %10
  %12 = load i32, ptr %6, align 4, !tbaa !12
  %13 = zext i32 %12 to i64
  %14 = add i64 %11, %13
  %15 = trunc i64 %14 to i32
  %16 = call ptr @lean_alloc_ctor_memory(i32 noundef %15)
  store ptr %16, ptr %7, align 8, !tbaa !4
  %17 = load ptr, ptr %7, align 8, !tbaa !4
  %18 = load i32, ptr %4, align 4, !tbaa !12
  %19 = load i32, ptr %5, align 4, !tbaa !12
  call void @lean_set_st_header(ptr noundef %17, i32 noundef %18, i32 noundef %19)
  %20 = load ptr, ptr %7, align 8, !tbaa !4
  call void @llvm.lifetime.end.p0(i64 8, ptr %7) #8
  ret ptr %20
}

; Function Attrs: nounwind uwtable
define internal ptr @_init_l_IO_FS_Stream_readRequestAs___at_Lean_Server_FileWorker_initAndRunWorker___spec__2___closed__14() #2 {
  %1 = alloca ptr, align 8
  %2 = alloca ptr, align 8
  br label %3

3:                                                ; preds = %0
  call void @llvm.lifetime.start.p0(i64 8, ptr %1) #8
  call void @llvm.lifetime.start.p0(i64 8, ptr %2) #8
  %4 = load ptr, ptr @l_IO_FS_Stream_readRequestAs___at_Lean_Server_FileWorker_initAndRunWorker___spec__2___closed__13, align 8, !tbaa !4
  store ptr %4, ptr %1, align 8, !tbaa !4
  %5 = call ptr @lean_alloc_ctor(i32 noundef 3, i32 noundef 1, i32 noundef 0)
  store ptr %5, ptr %2, align 8, !tbaa !4
  %6 = load ptr, ptr %2, align 8, !tbaa !4
  %7 = load ptr, ptr %1, align 8, !tbaa !4
  call void @lean_ctor_set(ptr noundef %6, i32 noundef 0, ptr noundef %7)
  %8 = load ptr, ptr %2, align 8, !tbaa !4
  call void @llvm.lifetime.end.p0(i64 8, ptr %2) #8
  call void @llvm.lifetime.end.p0(i64 8, ptr %1) #8
  ret ptr %8
}